	.text
	.file	"a.c"
	.globl	f                       # -- Begin function f
	.p2align	4, 0x90
	.type	f,@function
f:                                      # @f
	.cfi_startproc
# %bb.0:
	pushq	%rbp
	.cfi_def_cfa_offset 16
	.cfi_offset %rbp, -16
	movq	%rsp, %rbp
	.cfi_def_cfa_register %rbp
	movsd	%xmm0, -16(%rbp)
	movsd	%xmm1, -24(%rbp)
	movsd	-16(%rbp), %xmm0        # xmm0 = mem[0],zero
	movsd	-24(%rbp), %xmm1        # xmm1 = mem[0],zero
	ucomisd	%xmm0, %xmm1
	jb	.LBB0_2
# %bb.1:
	movl	$0, -4(%rbp)
	jmp	.LBB0_3
.LBB0_2:
	movl	$1, -4(%rbp)
.LBB0_3:
	movl	-4(%rbp), %eax
	popq	%rbp
	retq
.Lfunc_end0:
	.size	f, .Lfunc_end0-f
	.cfi_endproc
                                        # -- End function
	.section	.rodata.cst8,"aM",@progbits,8
	.p2align	3               # -- Begin function main
.LCPI1_0:
	.quad	4614388178203810202     # double 3.2000000000000002
.LCPI1_1:
	.quad	4612586738352862003     # double 2.3999999999999999
.LCPI1_2:
	.quad	4608083138725491507     # double 1.2
	.text
	.globl	main
	.p2align	4, 0x90
	.type	main,@function
main:                                   # @main
	.cfi_startproc
# %bb.0:
	pushq	%rbp
	.cfi_def_cfa_offset 16
	.cfi_offset %rbp, -16
	movq	%rsp, %rbp
	.cfi_def_cfa_register %rbp
	subq	$16, %rsp
	movsd	.LCPI1_2(%rip), %xmm0   # xmm0 = mem[0],zero
	movsd	.LCPI1_1(%rip), %xmm1   # xmm1 = mem[0],zero
	callq	f
	movabsq	$.L.str, %rdi
	movl	%eax, %esi
	movb	$0, %al
	callq	printf
	movsd	.LCPI1_0(%rip), %xmm0   # xmm0 = mem[0],zero
	movsd	.LCPI1_1(%rip), %xmm1   # xmm1 = mem[0],zero
	movl	%eax, -4(%rbp)          # 4-byte Spill
	callq	f
	movabsq	$.L.str, %rdi
	movl	%eax, %esi
	movb	$0, %al
	callq	printf
	xorl	%esi, %esi
	movl	%eax, -8(%rbp)          # 4-byte Spill
	movl	%esi, %eax
	addq	$16, %rsp
	popq	%rbp
	retq
.Lfunc_end1:
	.size	main, .Lfunc_end1-main
	.cfi_endproc
                                        # -- End function
	.type	.L.str,@object          # @.str
	.section	.rodata.str1.1,"aMS",@progbits,1
.L.str:
	.asciz	"%d\n"
	.size	.L.str, 4


	.ident	"clang version 6.0.0-1ubuntu2 (tags/RELEASE_600/final)"
	.section	".note.GNU-stack","",@progbits
